Certificate Request:
    Data:
        Version: 1 (0x0)
        Subject: C = FR, L = LIMOGES, O = CRYPTIS, OU = SECUTIC, CN = localhost
        Subject Public Key Info:
            Public Key Algorithm: id-ecPublicKey
                Public-Key: (256 bit)
                pub:
                    04:88:d5:3f:e7:4b:95:6f:0f:50:b9:5e:d1:24:51:
                    a9:b1:c7:29:15:50:cc:b5:6c:14:a8:35:1e:7e:72:
                    3b:83:4e:61:4e:ae:0a:e1:bd:03:96:54:a7:59:17:
                    36:b9:3a:34:5b:83:13:5c:be:a0:6c:70:0d:c4:f7:
                    54:6d:88:4f:ed
                ASN1 OID: prime256v1
                NIST CURVE: P-256
        Attributes:
            Requested Extensions:
                X509v3 Basic Constraints: 
                    CA:FALSE
    Signature Algorithm: ecdsa-with-SHA256
    Signature Value:
        30:45:02:20:50:33:c8:64:a1:04:2b:58:06:17:50:2e:a5:76:
        83:c5:17:70:94:59:af:c2:3c:1c:7e:11:30:6e:f2:7b:8b:c5:
        02:21:00:e9:aa:34:5e:6a:7e:11:f1:c7:bd:e1:2f:1b:8e:13:
        42:2c:d7:1f:a9:4e:70:2d:be:3f:c9:37:ea:5b:8a:7a:78
-----BEGIN CERTIFICATE REQUEST-----
MIIBLjCB1QIBADBXMQswCQYDVQQGEwJGUjEQMA4GA1UEBwwHTElNT0dFUzEQMA4G
A1UECgwHQ1JZUFRJUzEQMA4GA1UECwwHU0VDVVRJQzESMBAGA1UEAwwJbG9jYWxo
b3N0MFkwEwYHKoZIzj0CAQYIKoZIzj0DAQcDQgAEiNU/50uVbw9QuV7RJFGpsccp
FVDMtWwUqDUefnI7g05hTq4K4b0DllSnWRc2uTo0W4MTXL6gbHANxPdUbYhP7aAc
MBoGCSqGSIb3DQEJDjENMAswCQYDVR0TBAIwADAKBggqhkjOPQQDAgNIADBFAiBQ
M8hkoQQrWAYXUC6ldoPFF3CUWa/CPBx+ETBu8nuLxQIhAOmqNF5qfhHxx73hLxuO
E0Is1x+pTnAtvj/JN+pbinp4
-----END CERTIFICATE REQUEST-----
