Certificate:
    Data:
        Version: 3 (0x2)
        Serial Number:
            15:5f:47:3f:14:e7:4a:e8:1d:a2:14:2e:f7:be:87:f9:ec:57:f9:2d
        Signature Algorithm: ecdsa-with-SHA256
        Issuer: C = FR, L = LIMOGES, O = CRYPTIS, OU = SECUTIC, CN = ACCRYPTIS
        Validity
            Not Before: Apr 20 22:08:12 2023 GMT
            Not After : May 20 22:08:12 2023 GMT
        Subject: C = FR, L = LIMOGES, O = CRYPTIS, OU = SECUTIC, CN = ACCRYPTIS
        Subject Public Key Info:
            Public Key Algorithm: id-ecPublicKey
                Public-Key: (256 bit)
                pub:
                    04:82:1f:ac:b0:13:c2:3b:2a:c4:65:70:96:81:a8:
                    31:2c:b4:eb:a2:4a:01:7a:96:5e:cb:a1:11:14:ee:
                    68:ce:3b:80:dc:7f:c2:5c:50:83:a2:4f:09:d5:e2:
                    b2:19:2a:05:84:ee:64:9b:bb:85:81:43:dd:37:c0:
                    fc:d6:98:1b:85
                ASN1 OID: prime256v1
                NIST CURVE: P-256
        X509v3 extensions:
            X509v3 Basic Constraints: 
                CA:TRUE
            X509v3 Subject Key Identifier: 
                FD:70:C5:71:B6:7B:C5:C1:8E:C8:25:69:A8:C3:44:63:56:5B:65:0B
    Signature Algorithm: ecdsa-with-SHA256
    Signature Value:
        30:46:02:21:00:ac:53:ac:32:8c:55:50:34:ef:1c:61:d2:58:
        fb:30:44:e1:bb:ea:f4:79:fd:00:be:01:fe:9d:0b:d7:b0:a5:
        d7:02:21:00:dc:12:81:d4:91:e8:aa:df:49:be:ae:30:74:4c:
        ed:3e:10:08:04:e2:9d:0a:cc:64:39:9b:49:4b:72:7f:08:aa
-----BEGIN CERTIFICATE-----
MIIB4DCCAYWgAwIBAgIUFV9HPxTnSugdohQu976H+exX+S0wCgYIKoZIzj0EAwIw
VzELMAkGA1UEBhMCRlIxEDAOBgNVBAcMB0xJTU9HRVMxEDAOBgNVBAoMB0NSWVBU
SVMxEDAOBgNVBAsMB1NFQ1VUSUMxEjAQBgNVBAMMCUFDQ1JZUFRJUzAeFw0yMzA0
MjAyMjA4MTJaFw0yMzA1MjAyMjA4MTJaMFcxCzAJBgNVBAYTAkZSMRAwDgYDVQQH
DAdMSU1PR0VTMRAwDgYDVQQKDAdDUllQVElTMRAwDgYDVQQLDAdTRUNVVElDMRIw
EAYDVQQDDAlBQ0NSWVBUSVMwWTATBgcqhkjOPQIBBggqhkjOPQMBBwNCAASCH6yw
E8I7KsRlcJaBqDEstOuiSgF6ll7LoREU7mjOO4Dcf8JcUIOiTwnV4rIZKgWE7mSb
u4WBQ903wPzWmBuFoy8wLTAMBgNVHRMEBTADAQH/MB0GA1UdDgQWBBT9cMVxtnvF
wY7IJWmow0RjVltlCzAKBggqhkjOPQQDAgNJADBGAiEArFOsMoxVUDTvHGHSWPsw
ROG76vR5/QC+Af6dC9ewpdcCIQDcEoHUkeiq30m+rjB0TO0+EAgE4p0KzGQ5m0lL
cn8Iqg==
-----END CERTIFICATE-----
