Certificate:
    Data:
        Version: 3 (0x2)
        Serial Number:
            7b:e4:20:6c:7e:72:d3:d8:e7:79:a8:a5:5b:bb:b3:1a:5a:2f:67:cf
        Signature Algorithm: ecdsa-with-SHA256
        Issuer: C = FR, L = LIMOGES, O = CRYPTIS, OU = SECUTIC, CN = ACCRYPTIS
        Validity
            Not Before: Apr 20 22:08:12 2023 GMT
            Not After : Apr 17 22:08:12 2033 GMT
        Subject: C = FR, L = LIMOGES, O = CRYPTIS, OU = SECUTIC, CN = localhost
        Subject Public Key Info:
            Public Key Algorithm: id-ecPublicKey
                Public-Key: (256 bit)
                pub:
                    04:88:d5:3f:e7:4b:95:6f:0f:50:b9:5e:d1:24:51:
                    a9:b1:c7:29:15:50:cc:b5:6c:14:a8:35:1e:7e:72:
                    3b:83:4e:61:4e:ae:0a:e1:bd:03:96:54:a7:59:17:
                    36:b9:3a:34:5b:83:13:5c:be:a0:6c:70:0d:c4:f7:
                    54:6d:88:4f:ed
                ASN1 OID: prime256v1
                NIST CURVE: P-256
        X509v3 extensions:
            X509v3 Basic Constraints: critical
                CA:FALSE
            X509v3 Subject Key Identifier: 
                17:73:2B:02:BC:64:E0:CE:C8:9F:9E:56:7D:11:D5:0A:32:77:92:FF
            X509v3 Authority Key Identifier: 
                FD:70:C5:71:B6:7B:C5:C1:8E:C8:25:69:A8:C3:44:63:56:5B:65:0B
    Signature Algorithm: ecdsa-with-SHA256
    Signature Value:
        30:45:02:21:00:ed:7b:24:7c:ab:1c:d7:7a:06:f0:80:30:bc:
        b3:54:7a:7d:42:71:00:98:0a:23:5d:94:7e:7e:3c:fa:f2:e7:
        3e:02:20:0c:7b:ed:0a:d3:f3:d1:86:f6:1f:ef:4e:1e:f0:c3:
        77:ba:2a:19:b8:4f:27:fe:73:c5:b2:75:a0:65:aa:9c:17
-----BEGIN CERTIFICATE-----
MIICADCCAaagAwIBAgIUe+QgbH5y09jneailW7uzGlovZ88wCgYIKoZIzj0EAwIw
VzELMAkGA1UEBhMCRlIxEDAOBgNVBAcMB0xJTU9HRVMxEDAOBgNVBAoMB0NSWVBU
SVMxEDAOBgNVBAsMB1NFQ1VUSUMxEjAQBgNVBAMMCUFDQ1JZUFRJUzAeFw0yMzA0
MjAyMjA4MTJaFw0zMzA0MTcyMjA4MTJaMFcxCzAJBgNVBAYTAkZSMRAwDgYDVQQH
DAdMSU1PR0VTMRAwDgYDVQQKDAdDUllQVElTMRAwDgYDVQQLDAdTRUNVVElDMRIw
EAYDVQQDDAlsb2NhbGhvc3QwWTATBgcqhkjOPQIBBggqhkjOPQMBBwNCAASI1T/n
S5VvD1C5XtEkUamxxykVUMy1bBSoNR5+cjuDTmFOrgrhvQOWVKdZFza5OjRbgxNc
vqBscA3E91RtiE/to1AwTjAMBgNVHRMBAf8EAjAAMB0GA1UdDgQWBBQXcysCvGTg
zsifnlZ9EdUKMneS/zAfBgNVHSMEGDAWgBT9cMVxtnvFwY7IJWmow0RjVltlCzAK
BggqhkjOPQQDAgNIADBFAiEA7XskfKsc13oG8IAwvLNUen1CcQCYCiNdlH5+PPry
5z4CIAx77QrT89GG9h/vTh7ww3e6Khm4Tyf+c8WydaBlqpwX
-----END CERTIFICATE-----
